
map.obj:     file format elf32-i386


Disassembly of section .group:

00000000 <.group>:
   0:	01 00                	add    %eax,(%eax)
   2:	00 00                	add    %al,(%eax)
   4:	06                   	push   %es
   5:	00 00                	add    %al,(%eax)
	...

Disassembly of section .text:

00000000 <main>:
   0:	8d 4c 24 04          	lea    0x4(%esp),%ecx
   4:	83 e4 f0             	and    $0xfffffff0,%esp
   7:	ff 71 fc             	pushl  -0x4(%ecx)
   a:	55                   	push   %ebp
   b:	89 e5                	mov    %esp,%ebp
   d:	53                   	push   %ebx
   e:	51                   	push   %ecx
   f:	83 ec 10             	sub    $0x10,%esp
  12:	e8 fc ff ff ff       	call   13 <main+0x13>
  17:	81 c3 02 00 00 00    	add    $0x2,%ebx
  1d:	c7 45 ec 00 00 00 00 	movl   $0x0,-0x14(%ebp)
  24:	83 ec 0c             	sub    $0xc,%esp
  27:	6a 64                	push   $0x64
  29:	e8 fc ff ff ff       	call   2a <main+0x2a>
  2e:	83 c4 10             	add    $0x10,%esp
  31:	89 45 f0             	mov    %eax,-0x10(%ebp)
  34:	83 ec 0c             	sub    $0xc,%esp
  37:	6a 64                	push   $0x64
  39:	e8 fc ff ff ff       	call   3a <main+0x3a>
  3e:	83 c4 10             	add    $0x10,%esp
  41:	89 45 f4             	mov    %eax,-0xc(%ebp)
  44:	83 ec 0c             	sub    $0xc,%esp
  47:	6a 03                	push   $0x3
  49:	e8 fc ff ff ff       	call   4a <main+0x4a>
  4e:	83 c4 10             	add    $0x10,%esp
  51:	b8 00 00 00 00       	mov    $0x0,%eax
  56:	8d 65 f8             	lea    -0x8(%ebp),%esp
  59:	59                   	pop    %ecx
  5a:	5b                   	pop    %ebx
  5b:	5d                   	pop    %ebp
  5c:	8d 61 fc             	lea    -0x4(%ecx),%esp
  5f:	c3                   	ret    

Disassembly of section .text.__x86.get_pc_thunk.bx:

00000000 <__x86.get_pc_thunk.bx>:
   0:	8b 1c 24             	mov    (%esp),%ebx
   3:	c3                   	ret    
